target datalayout = "e-m:e-p270:32:32-p271:32:32-p272:64:64-i64:64-i128:128-f80:128-n8:16:32:64-S128"
target triple = "x86_64-pc-linux-gnu"

@hf_Tango_AttributeValue_3_quality = internal global i32 0, align 4
@hf_Tango_AttributeValue_3_name = internal global i32 0, align 4
@hf_Tango_AttributeValue_3_err_list_loop = internal global i32 0, align 4
@hf_Tango_AttributeDim_dim_x = internal global i32 0, align 4
@hf_Tango_AttributeDim_dim_y = internal global i32 0, align 4
@hf_Tango_DevError_reason = internal global i32 0, align 4
@hf_Tango_DevError_severity = internal global i32 0, align 4
@hf_Tango_DevError_desc = internal global i32 0, align 4
@hf_Tango_DevError_origin = internal global i32 0, align 4
@hf_Tango_TimeVal_tv_sec = internal global i32 0, align 4
@hf_Tango_TimeVal_tv_usec = internal global i32 0, align 4
@hf_Tango_TimeVal_tv_nsec = internal global i32 0, align 4
@ett_giop_struct = internal global i32 0, align 4
@ett_giop_sequence = internal global i32 0, align 4
@boundary = internal global i32 12, align 4
@.str.764 = private unnamed_addr constant [22 x i8] c"struct Tango_DevError\00", align 1
@.str.773 = private unnamed_addr constant [21 x i8] c"struct Tango_TimeVal\00", align 1
@.str.789 = private unnamed_addr constant [26 x i8] c"struct Tango_AttributeDim\00", align 1
@.str.867 = private unnamed_addr constant [41 x i8] c"sequence Tango_AttributeValue_3_err_list\00", align 1

; Function Attrs: null_pointer_is_valid sspstrong uwtable
define internal void @decode_Tango_DevError_st(ptr noundef %0, ptr noundef %1, ptr noundef %2, ptr noundef %3, ptr noundef %4, ptr noundef %5, ptr noundef %6, i1 noundef zeroext %7) #0 {
  %9 = alloca ptr, align 8
  %10 = alloca ptr, align 8
  %11 = alloca ptr, align 8
  %12 = alloca ptr, align 8
  %13 = alloca ptr, align 8
  %14 = alloca ptr, align 8
  %15 = alloca ptr, align 8
  %16 = alloca i8, align 1
  %17 = alloca i32, align 4
  store ptr %0, ptr %9, align 8
  store ptr %1, ptr %10, align 8
  store ptr %2, ptr %11, align 8
  store ptr %3, ptr %12, align 8
  store ptr %4, ptr %13, align 8
  store ptr %5, ptr %14, align 8
  store ptr %6, ptr %15, align 8
  %18 = zext i1 %7 to i8
  store i8 %18, ptr %16, align 1
  call void @llvm.lifetime.start.p0(i64 4, ptr %17) #6
  %19 = load ptr, ptr %11, align 8
  %20 = load ptr, ptr %9, align 8
  %21 = load ptr, ptr %13, align 8
  %22 = load i8, ptr %16, align 1, !range !6, !noundef !7
  %23 = trunc i8 %22 to i1
  %24 = load i32, ptr @boundary, align 4
  %25 = load i32, ptr @hf_Tango_DevError_reason, align 4
  call void @giop_add_CDR_string(ptr noundef %19, ptr noundef %20, ptr noundef %21, i1 noundef zeroext %23, i32 noundef %24, i32 noundef %25)
  %26 = load ptr, ptr %9, align 8
  %27 = load ptr, ptr %13, align 8
  %28 = load i8, ptr %16, align 1, !range !6, !noundef !7
  %29 = trunc i8 %28 to i1
  %30 = load i32, ptr @boundary, align 4
  %31 = call i32 @get_CDR_enum(ptr noundef %26, ptr noundef %27, i1 noundef zeroext %29, i32 noundef %30)
  store i32 %31, ptr %17, align 4
  %32 = load ptr, ptr %11, align 8
  %33 = load i32, ptr @hf_Tango_DevError_severity, align 4
  %34 = load ptr, ptr %9, align 8
  %35 = load ptr, ptr %13, align 8
  %36 = load i32, ptr %35, align 4
  %37 = sub i32 %36, 4
  %38 = load i32, ptr %17, align 4
  %39 = call ptr @proto_tree_add_uint(ptr noundef %32, i32 noundef %33, ptr noundef %34, i32 noundef %37, i32 noundef 4, i32 noundef %38)
  %40 = load ptr, ptr %11, align 8
  %41 = load ptr, ptr %9, align 8
  %42 = load ptr, ptr %13, align 8
  %43 = load i8, ptr %16, align 1, !range !6, !noundef !7
  %44 = trunc i8 %43 to i1
  %45 = load i32, ptr @boundary, align 4
  %46 = load i32, ptr @hf_Tango_DevError_desc, align 4
  call void @giop_add_CDR_string(ptr noundef %40, ptr noundef %41, ptr noundef %42, i1 noundef zeroext %44, i32 noundef %45, i32 noundef %46)
  %47 = load ptr, ptr %11, align 8
  %48 = load ptr, ptr %9, align 8
  %49 = load ptr, ptr %13, align 8
  %50 = load i8, ptr %16, align 1, !range !6, !noundef !7
  %51 = trunc i8 %50 to i1
  %52 = load i32, ptr @boundary, align 4
  %53 = load i32, ptr @hf_Tango_DevError_origin, align 4
  call void @giop_add_CDR_string(ptr noundef %47, ptr noundef %48, ptr noundef %49, i1 noundef zeroext %51, i32 noundef %52, i32 noundef %53)
  call void @llvm.lifetime.end.p0(i64 4, ptr %17) #6
  ret void
}

; Function Attrs: null_pointer_is_valid sspstrong uwtable
define internal void @decode_Tango_AttributeDim_st(ptr noundef %0, ptr noundef %1, ptr noundef %2, ptr noundef %3, ptr noundef %4, ptr noundef %5, ptr noundef %6, i1 noundef zeroext %7) #0 {
  %9 = alloca ptr, align 8
  %10 = alloca ptr, align 8
  %11 = alloca ptr, align 8
  %12 = alloca ptr, align 8
  %13 = alloca ptr, align 8
  %14 = alloca ptr, align 8
  %15 = alloca ptr, align 8
  %16 = alloca i8, align 1
  store ptr %0, ptr %9, align 8
  store ptr %1, ptr %10, align 8
  store ptr %2, ptr %11, align 8
  store ptr %3, ptr %12, align 8
  store ptr %4, ptr %13, align 8
  store ptr %5, ptr %14, align 8
  store ptr %6, ptr %15, align 8
  %17 = zext i1 %7 to i8
  store i8 %17, ptr %16, align 1
  %18 = load ptr, ptr %11, align 8
  %19 = load i32, ptr @hf_Tango_AttributeDim_dim_x, align 4
  %20 = load ptr, ptr %9, align 8
  %21 = load ptr, ptr %13, align 8
  %22 = load i32, ptr %21, align 4
  %23 = sub i32 %22, 4
  %24 = load ptr, ptr %9, align 8
  %25 = load ptr, ptr %13, align 8
  %26 = load i8, ptr %16, align 1, !range !6, !noundef !7
  %27 = trunc i8 %26 to i1
  %28 = load i32, ptr @boundary, align 4
  %29 = call i32 @get_CDR_long(ptr noundef %24, ptr noundef %25, i1 noundef zeroext %27, i32 noundef %28)
  %30 = call ptr @proto_tree_add_int(ptr noundef %18, i32 noundef %19, ptr noundef %20, i32 noundef %23, i32 noundef 4, i32 noundef %29)
  %31 = load ptr, ptr %11, align 8
  %32 = load i32, ptr @hf_Tango_AttributeDim_dim_y, align 4
  %33 = load ptr, ptr %9, align 8
  %34 = load ptr, ptr %13, align 8
  %35 = load i32, ptr %34, align 4
  %36 = sub i32 %35, 4
  %37 = load ptr, ptr %9, align 8
  %38 = load ptr, ptr %13, align 8
  %39 = load i8, ptr %16, align 1, !range !6, !noundef !7
  %40 = trunc i8 %39 to i1
  %41 = load i32, ptr @boundary, align 4
  %42 = call i32 @get_CDR_long(ptr noundef %37, ptr noundef %38, i1 noundef zeroext %40, i32 noundef %41)
  %43 = call ptr @proto_tree_add_int(ptr noundef %31, i32 noundef %32, ptr noundef %33, i32 noundef %36, i32 noundef 4, i32 noundef %42)
  ret void
}

; Function Attrs: null_pointer_is_valid sspstrong uwtable
define internal void @decode_Tango_TimeVal_st(ptr noundef %0, ptr noundef %1, ptr noundef %2, ptr noundef %3, ptr noundef %4, ptr noundef %5, ptr noundef %6, i1 noundef zeroext %7) #0 {
  %9 = alloca ptr, align 8
  %10 = alloca ptr, align 8
  %11 = alloca ptr, align 8
  %12 = alloca ptr, align 8
  %13 = alloca ptr, align 8
  %14 = alloca ptr, align 8
  %15 = alloca ptr, align 8
  %16 = alloca i8, align 1
  store ptr %0, ptr %9, align 8
  store ptr %1, ptr %10, align 8
  store ptr %2, ptr %11, align 8
  store ptr %3, ptr %12, align 8
  store ptr %4, ptr %13, align 8
  store ptr %5, ptr %14, align 8
  store ptr %6, ptr %15, align 8
  %17 = zext i1 %7 to i8
  store i8 %17, ptr %16, align 1
  %18 = load ptr, ptr %11, align 8
  %19 = load i32, ptr @hf_Tango_TimeVal_tv_sec, align 4
  %20 = load ptr, ptr %9, align 8
  %21 = load ptr, ptr %13, align 8
  %22 = load i32, ptr %21, align 4
  %23 = sub i32 %22, 4
  %24 = load ptr, ptr %9, align 8
  %25 = load ptr, ptr %13, align 8
  %26 = load i8, ptr %16, align 1, !range !6, !noundef !7
  %27 = trunc i8 %26 to i1
  %28 = load i32, ptr @boundary, align 4
  %29 = call i32 @get_CDR_long(ptr noundef %24, ptr noundef %25, i1 noundef zeroext %27, i32 noundef %28)
  %30 = call ptr @proto_tree_add_int(ptr noundef %18, i32 noundef %19, ptr noundef %20, i32 noundef %23, i32 noundef 4, i32 noundef %29)
  %31 = load ptr, ptr %11, align 8
  %32 = load i32, ptr @hf_Tango_TimeVal_tv_usec, align 4
  %33 = load ptr, ptr %9, align 8
  %34 = load ptr, ptr %13, align 8
  %35 = load i32, ptr %34, align 4
  %36 = sub i32 %35, 4
  %37 = load ptr, ptr %9, align 8
  %38 = load ptr, ptr %13, align 8
  %39 = load i8, ptr %16, align 1, !range !6, !noundef !7
  %40 = trunc i8 %39 to i1
  %41 = load i32, ptr @boundary, align 4
  %42 = call i32 @get_CDR_long(ptr noundef %37, ptr noundef %38, i1 noundef zeroext %40, i32 noundef %41)
  %43 = call ptr @proto_tree_add_int(ptr noundef %31, i32 noundef %32, ptr noundef %33, i32 noundef %36, i32 noundef 4, i32 noundef %42)
  %44 = load ptr, ptr %11, align 8
  %45 = load i32, ptr @hf_Tango_TimeVal_tv_nsec, align 4
  %46 = load ptr, ptr %9, align 8
  %47 = load ptr, ptr %13, align 8
  %48 = load i32, ptr %47, align 4
  %49 = sub i32 %48, 4
  %50 = load ptr, ptr %9, align 8
  %51 = load ptr, ptr %13, align 8
  %52 = load i8, ptr %16, align 1, !range !6, !noundef !7
  %53 = trunc i8 %52 to i1
  %54 = load i32, ptr @boundary, align 4
  %55 = call i32 @get_CDR_long(ptr noundef %50, ptr noundef %51, i1 noundef zeroext %53, i32 noundef %54)
  %56 = call ptr @proto_tree_add_int(ptr noundef %44, i32 noundef %45, ptr noundef %46, i32 noundef %49, i32 noundef 4, i32 noundef %55)
  ret void
}

; Function Attrs: null_pointer_is_valid sspstrong uwtable
define internal void @decode_Tango_AttributeValue_3_st(ptr noundef %0, ptr noundef %1, ptr noundef %2, ptr noundef %3, ptr noundef %4, ptr noundef %5, ptr noundef %6, i1 noundef zeroext %7) #0 {
  %9 = alloca ptr, align 8
  %10 = alloca ptr, align 8
  %11 = alloca ptr, align 8
  %12 = alloca ptr, align 8
  %13 = alloca ptr, align 8
  %14 = alloca ptr, align 8
  %15 = alloca ptr, align 8
  %16 = alloca i8, align 1
  %17 = alloca i32, align 4
  %18 = alloca i32, align 4
  %19 = alloca i32, align 4
  %20 = alloca ptr, align 8
  %21 = alloca ptr, align 8
  %22 = alloca ptr, align 8
  %23 = alloca ptr, align 8
  %24 = alloca ptr, align 8
  store ptr %0, ptr %9, align 8
  store ptr %1, ptr %10, align 8
  store ptr %2, ptr %11, align 8
  store ptr %3, ptr %12, align 8
  store ptr %4, ptr %13, align 8
  store ptr %5, ptr %14, align 8
  store ptr %6, ptr %15, align 8
  %25 = zext i1 %7 to i8
  store i8 %25, ptr %16, align 1
  call void @llvm.lifetime.start.p0(i64 4, ptr %17) #6
  call void @llvm.lifetime.start.p0(i64 4, ptr %18) #6
  call void @llvm.lifetime.start.p0(i64 4, ptr %19) #6
  %26 = load ptr, ptr %9, align 8
  %27 = load ptr, ptr %10, align 8
  %28 = load ptr, ptr %11, align 8
  %29 = load ptr, ptr %12, align 8
  %30 = load ptr, ptr %13, align 8
  %31 = load i8, ptr %16, align 1, !range !6, !noundef !7
  %32 = trunc i8 %31 to i1
  %33 = load i32, ptr @boundary, align 4
  %34 = load ptr, ptr %14, align 8
  call void @get_CDR_any(ptr noundef %26, ptr noundef %27, ptr noundef %28, ptr noundef %29, ptr noundef %30, i1 noundef zeroext %32, i32 noundef %33, ptr noundef %34)
  %35 = load ptr, ptr %9, align 8
  %36 = load ptr, ptr %13, align 8
  %37 = load i8, ptr %16, align 1, !range !6, !noundef !7
  %38 = trunc i8 %37 to i1
  %39 = load i32, ptr @boundary, align 4
  %40 = call i32 @get_CDR_enum(ptr noundef %35, ptr noundef %36, i1 noundef zeroext %38, i32 noundef %39)
  store i32 %40, ptr %17, align 4
  %41 = load ptr, ptr %11, align 8
  %42 = load i32, ptr @hf_Tango_AttributeValue_3_quality, align 4
  %43 = load ptr, ptr %9, align 8
  %44 = load ptr, ptr %13, align 8
  %45 = load i32, ptr %44, align 4
  %46 = sub i32 %45, 4
  %47 = load i32, ptr %17, align 4
  %48 = call ptr @proto_tree_add_uint(ptr noundef %41, i32 noundef %42, ptr noundef %43, i32 noundef %46, i32 noundef 4, i32 noundef %47)
  call void @llvm.lifetime.start.p0(i64 8, ptr %20) #6
  %49 = load ptr, ptr %11, align 8
  %50 = load ptr, ptr %9, align 8
  %51 = load ptr, ptr %13, align 8
  %52 = load i32, ptr %51, align 4
  %53 = load i32, ptr @ett_giop_struct, align 4
  %54 = call ptr @proto_tree_add_subtree(ptr noundef %49, ptr noundef %50, i32 noundef %52, i32 noundef -1, i32 noundef %53, ptr noundef null, ptr noundef @.str.773)
  store ptr %54, ptr %20, align 8
  %55 = load ptr, ptr %9, align 8
  %56 = load ptr, ptr %10, align 8
  %57 = load ptr, ptr %20, align 8
  %58 = load ptr, ptr %12, align 8
  %59 = load ptr, ptr %13, align 8
  %60 = load ptr, ptr %14, align 8
  %61 = load ptr, ptr %15, align 8
  %62 = load i8, ptr %16, align 1, !range !6, !noundef !7
  %63 = trunc i8 %62 to i1
  call void @decode_Tango_TimeVal_st(ptr noundef %55, ptr noundef %56, ptr noundef %57, ptr noundef %58, ptr noundef %59, ptr noundef %60, ptr noundef %61, i1 noundef zeroext %63)
  call void @llvm.lifetime.end.p0(i64 8, ptr %20) #6
  %64 = load ptr, ptr %11, align 8
  %65 = load ptr, ptr %9, align 8
  %66 = load ptr, ptr %13, align 8
  %67 = load i8, ptr %16, align 1, !range !6, !noundef !7
  %68 = trunc i8 %67 to i1
  %69 = load i32, ptr @boundary, align 4
  %70 = load i32, ptr @hf_Tango_AttributeValue_3_name, align 4
  call void @giop_add_CDR_string(ptr noundef %64, ptr noundef %65, ptr noundef %66, i1 noundef zeroext %68, i32 noundef %69, i32 noundef %70)
  call void @llvm.lifetime.start.p0(i64 8, ptr %21) #6
  %71 = load ptr, ptr %11, align 8
  %72 = load ptr, ptr %9, align 8
  %73 = load ptr, ptr %13, align 8
  %74 = load i32, ptr %73, align 4
  %75 = load i32, ptr @ett_giop_struct, align 4
  %76 = call ptr @proto_tree_add_subtree(ptr noundef %71, ptr noundef %72, i32 noundef %74, i32 noundef -1, i32 noundef %75, ptr noundef null, ptr noundef @.str.789)
  store ptr %76, ptr %21, align 8
  %77 = load ptr, ptr %9, align 8
  %78 = load ptr, ptr %10, align 8
  %79 = load ptr, ptr %21, align 8
  %80 = load ptr, ptr %12, align 8
  %81 = load ptr, ptr %13, align 8
  %82 = load ptr, ptr %14, align 8
  %83 = load ptr, ptr %15, align 8
  %84 = load i8, ptr %16, align 1, !range !6, !noundef !7
  %85 = trunc i8 %84 to i1
  call void @decode_Tango_AttributeDim_st(ptr noundef %77, ptr noundef %78, ptr noundef %79, ptr noundef %80, ptr noundef %81, ptr noundef %82, ptr noundef %83, i1 noundef zeroext %85)
  call void @llvm.lifetime.end.p0(i64 8, ptr %21) #6
  call void @llvm.lifetime.start.p0(i64 8, ptr %22) #6
  %86 = load ptr, ptr %11, align 8
  %87 = load ptr, ptr %9, align 8
  %88 = load ptr, ptr %13, align 8
  %89 = load i32, ptr %88, align 4
  %90 = load i32, ptr @ett_giop_struct, align 4
  %91 = call ptr @proto_tree_add_subtree(ptr noundef %86, ptr noundef %87, i32 noundef %89, i32 noundef -1, i32 noundef %90, ptr noundef null, ptr noundef @.str.789)
  store ptr %91, ptr %22, align 8
  %92 = load ptr, ptr %9, align 8
  %93 = load ptr, ptr %10, align 8
  %94 = load ptr, ptr %22, align 8
  %95 = load ptr, ptr %12, align 8
  %96 = load ptr, ptr %13, align 8
  %97 = load ptr, ptr %14, align 8
  %98 = load ptr, ptr %15, align 8
  %99 = load i8, ptr %16, align 1, !range !6, !noundef !7
  %100 = trunc i8 %99 to i1
  call void @decode_Tango_AttributeDim_st(ptr noundef %92, ptr noundef %93, ptr noundef %94, ptr noundef %95, ptr noundef %96, ptr noundef %97, ptr noundef %98, i1 noundef zeroext %100)
  call void @llvm.lifetime.end.p0(i64 8, ptr %22) #6
  %101 = load ptr, ptr %9, align 8
  %102 = load ptr, ptr %13, align 8
  %103 = load i8, ptr %16, align 1, !range !6, !noundef !7
  %104 = trunc i8 %103 to i1
  %105 = load i32, ptr @boundary, align 4
  %106 = call i32 @get_CDR_ulong(ptr noundef %101, ptr noundef %102, i1 noundef zeroext %104, i32 noundef %105)
  store i32 %106, ptr %18, align 4
  %107 = load ptr, ptr %11, align 8
  %108 = load i32, ptr @hf_Tango_AttributeValue_3_err_list_loop, align 4
  %109 = load ptr, ptr %9, align 8
  %110 = load ptr, ptr %13, align 8
  %111 = load i32, ptr %110, align 4
  %112 = sub i32 %111, 4
  %113 = load i32, ptr %18, align 4
  %114 = call ptr @proto_tree_add_uint(ptr noundef %107, i32 noundef %108, ptr noundef %109, i32 noundef %112, i32 noundef 4, i32 noundef %113)
  call void @llvm.lifetime.start.p0(i64 8, ptr %23) #6
  %115 = load ptr, ptr %11, align 8
  store ptr %115, ptr %23, align 8
  %116 = load ptr, ptr %11, align 8
  %117 = load ptr, ptr %9, align 8
  %118 = load ptr, ptr %13, align 8
  %119 = load i32, ptr %118, align 4
  %120 = load i32, ptr @ett_giop_sequence, align 4
  %121 = call ptr @proto_tree_add_subtree(ptr noundef %116, ptr noundef %117, i32 noundef %119, i32 noundef -1, i32 noundef %120, ptr noundef null, ptr noundef @.str.867)
  store ptr %121, ptr %11, align 8
  store i32 0, ptr %19, align 4
  br label %122

122:                                              ; preds = %142, %8
  %123 = load i32, ptr %19, align 4
  %124 = load i32, ptr %18, align 4
  %125 = icmp ult i32 %123, %124
  br i1 %125, label %126, label %145

126:                                              ; preds = %122
  call void @llvm.lifetime.start.p0(i64 8, ptr %24) #6
  %127 = load ptr, ptr %11, align 8
  %128 = load ptr, ptr %9, align 8
  %129 = load ptr, ptr %13, align 8
  %130 = load i32, ptr %129, align 4
  %131 = load i32, ptr @ett_giop_struct, align 4
  %132 = call ptr @proto_tree_add_subtree(ptr noundef %127, ptr noundef %128, i32 noundef %130, i32 noundef -1, i32 noundef %131, ptr noundef null, ptr noundef @.str.764)
  store ptr %132, ptr %24, align 8
  %133 = load ptr, ptr %9, align 8
  %134 = load ptr, ptr %10, align 8
  %135 = load ptr, ptr %24, align 8
  %136 = load ptr, ptr %12, align 8
  %137 = load ptr, ptr %13, align 8
  %138 = load ptr, ptr %14, align 8
  %139 = load ptr, ptr %15, align 8
  %140 = load i8, ptr %16, align 1, !range !6, !noundef !7
  %141 = trunc i8 %140 to i1
  call void @decode_Tango_DevError_st(ptr noundef %133, ptr noundef %134, ptr noundef %135, ptr noundef %136, ptr noundef %137, ptr noundef %138, ptr noundef %139, i1 noundef zeroext %141)
  call void @llvm.lifetime.end.p0(i64 8, ptr %24) #6
  br label %142

142:                                              ; preds = %126
  %143 = load i32, ptr %19, align 4
  %144 = add i32 %143, 1
  store i32 %144, ptr %19, align 4
  br label %122, !llvm.loop !103

145:                                              ; preds = %122
  %146 = load ptr, ptr %23, align 8
  store ptr %146, ptr %11, align 8
  call void @llvm.lifetime.end.p0(i64 8, ptr %23) #6
  call void @llvm.lifetime.end.p0(i64 4, ptr %19) #6
  call void @llvm.lifetime.end.p0(i64 4, ptr %18) #6
  call void @llvm.lifetime.end.p0(i64 4, ptr %17) #6
  ret void
}