; Function Attrs: null_pointer_is_valid sspstrong uwtable
define internal fastcc void @decode_Tango_AttributeValue_3_st(ptr noundef %0, ptr noundef %1, ptr noundef %2, ptr noundef %3, ptr noundef %4, ptr noundef %5, i1 noundef zeroext %6) unnamed_addr #0 {
  tail call void @get_CDR_any(ptr noundef %0, ptr noundef %1, ptr noundef %2, ptr noundef %3, ptr noundef %4, i1 noundef zeroext %6, i32 noundef 12, ptr noundef %5)
  %8 = tail call i32 @get_CDR_enum(ptr noundef %0, ptr noundef %4, i1 noundef zeroext %6, i32 noundef 12)
  %9 = load i32, ptr @hf_Tango_AttributeValue_3_quality, align 4
  %10 = load i32, ptr %4, align 4
  %11 = add i32 %10, -4
  %12 = tail call ptr @proto_tree_add_uint(ptr noundef %2, i32 noundef %9, ptr noundef %0, i32 noundef %11, i32 noundef 4, i32 noundef %8)
  %13 = load i32, ptr %4, align 4
  %14 = load i32, ptr @ett_giop_struct, align 4
  %15 = tail call ptr @proto_tree_add_subtree(ptr noundef %2, ptr noundef %0, i32 noundef %13, i32 noundef -1, i32 noundef %14, ptr noundef null, ptr noundef nonnull @.str.773)
  %16 = load i32, ptr @hf_Tango_TimeVal_tv_sec, align 4
  %17 = load i32, ptr %4, align 4
  %18 = add i32 %17, -4
  %19 = tail call i32 @get_CDR_long(ptr noundef %0, ptr noundef %4, i1 noundef zeroext %6, i32 noundef 12)
  %20 = tail call ptr @proto_tree_add_int(ptr noundef %15, i32 noundef %16, ptr noundef %0, i32 noundef %18, i32 noundef 4, i32 noundef %19)
  %21 = load i32, ptr @hf_Tango_TimeVal_tv_usec, align 4
  %22 = load i32, ptr %4, align 4
  %23 = add i32 %22, -4
  %24 = tail call i32 @get_CDR_long(ptr noundef %0, ptr noundef %4, i1 noundef zeroext %6, i32 noundef 12)
  %25 = tail call ptr @proto_tree_add_int(ptr noundef %15, i32 noundef %21, ptr noundef %0, i32 noundef %23, i32 noundef 4, i32 noundef %24)
  %26 = load i32, ptr @hf_Tango_TimeVal_tv_nsec, align 4
  %27 = load i32, ptr %4, align 4
  %28 = add i32 %27, -4
  %29 = tail call i32 @get_CDR_long(ptr noundef %0, ptr noundef %4, i1 noundef zeroext %6, i32 noundef 12)
  %30 = tail call ptr @proto_tree_add_int(ptr noundef %15, i32 noundef %26, ptr noundef %0, i32 noundef %28, i32 noundef 4, i32 noundef %29)
  %31 = load i32, ptr @hf_Tango_AttributeValue_3_name, align 4
  tail call void @giop_add_CDR_string(ptr noundef %2, ptr noundef %0, ptr noundef %4, i1 noundef zeroext %6, i32 noundef 12, i32 noundef %31)
  %32 = load i32, ptr %4, align 4
  %33 = load i32, ptr @ett_giop_struct, align 4
  %34 = tail call ptr @proto_tree_add_subtree(ptr noundef %2, ptr noundef %0, i32 noundef %32, i32 noundef -1, i32 noundef %33, ptr noundef null, ptr noundef nonnull @.str.789)
  %35 = load i32, ptr @hf_Tango_AttributeDim_dim_x, align 4
  %36 = load i32, ptr %4, align 4
  %37 = add i32 %36, -4
  %38 = tail call i32 @get_CDR_long(ptr noundef %0, ptr noundef %4, i1 noundef zeroext %6, i32 noundef 12)
  %39 = tail call ptr @proto_tree_add_int(ptr noundef %34, i32 noundef %35, ptr noundef %0, i32 noundef %37, i32 noundef 4, i32 noundef %38)
  %40 = load i32, ptr @hf_Tango_AttributeDim_dim_y, align 4
  %41 = load i32, ptr %4, align 4
  %42 = add i32 %41, -4
  %43 = tail call i32 @get_CDR_long(ptr noundef %0, ptr noundef %4, i1 noundef zeroext %6, i32 noundef 12)
  %44 = tail call ptr @proto_tree_add_int(ptr noundef %34, i32 noundef %40, ptr noundef %0, i32 noundef %42, i32 noundef 4, i32 noundef %43)
  %45 = load i32, ptr %4, align 4
  %46 = load i32, ptr @ett_giop_struct, align 4
  %47 = tail call ptr @proto_tree_add_subtree(ptr noundef %2, ptr noundef %0, i32 noundef %45, i32 noundef -1, i32 noundef %46, ptr noundef null, ptr noundef nonnull @.str.789)
  %48 = load i32, ptr @hf_Tango_AttributeDim_dim_x, align 4
  %49 = load i32, ptr %4, align 4
  %50 = add i32 %49, -4
  %51 = tail call i32 @get_CDR_long(ptr noundef %0, ptr noundef %4, i1 noundef zeroext %6, i32 noundef 12)
  %52 = tail call ptr @proto_tree_add_int(ptr noundef %47, i32 noundef %48, ptr noundef %0, i32 noundef %50, i32 noundef 4, i32 noundef %51)
  %53 = load i32, ptr @hf_Tango_AttributeDim_dim_y, align 4
  %54 = load i32, ptr %4, align 4
  %55 = add i32 %54, -4
  %56 = tail call i32 @get_CDR_long(ptr noundef %0, ptr noundef %4, i1 noundef zeroext %6, i32 noundef 12)
  %57 = tail call ptr @proto_tree_add_int(ptr noundef %47, i32 noundef %53, ptr noundef %0, i32 noundef %55, i32 noundef 4, i32 noundef %56)
  %58 = tail call i32 @get_CDR_ulong(ptr noundef %0, ptr noundef %4, i1 noundef zeroext %6, i32 noundef 12)
  %59 = load i32, ptr @hf_Tango_AttributeValue_3_err_list_loop, align 4
  %60 = load i32, ptr %4, align 4
  %61 = add i32 %60, -4
  %62 = tail call ptr @proto_tree_add_uint(ptr noundef %2, i32 noundef %59, ptr noundef %0, i32 noundef %61, i32 noundef 4, i32 noundef %58)
  %63 = load i32, ptr %4, align 4
  %64 = load i32, ptr @ett_giop_sequence, align 4
  %65 = tail call ptr @proto_tree_add_subtree(ptr noundef %2, ptr noundef %0, i32 noundef %63, i32 noundef -1, i32 noundef %64, ptr noundef null, ptr noundef nonnull @.str.867)
  %.not = icmp eq i32 %58, 0
  br i1 %.not, label %._crit_edge, label %.lr.ph

.lr.ph:                                           ; preds = %7, %.lr.ph
  %.01 = phi i32 [ %77, %.lr.ph ], [ 0, %7 ]
  %66 = load i32, ptr %4, align 4
  %67 = load i32, ptr @ett_giop_struct, align 4
  %68 = tail call ptr @proto_tree_add_subtree(ptr noundef %65, ptr noundef %0, i32 noundef %66, i32 noundef -1, i32 noundef %67, ptr noundef null, ptr noundef nonnull @.str.764)
  %69 = load i32, ptr @hf_Tango_DevError_reason, align 4
  tail call void @giop_add_CDR_string(ptr noundef %68, ptr noundef %0, ptr noundef %4, i1 noundef zeroext %6, i32 noundef 12, i32 noundef %69)
  %70 = tail call i32 @get_CDR_enum(ptr noundef %0, ptr noundef %4, i1 noundef zeroext %6, i32 noundef 12)
  %71 = load i32, ptr @hf_Tango_DevError_severity, align 4
  %72 = load i32, ptr %4, align 4
  %73 = add i32 %72, -4
  %74 = tail call ptr @proto_tree_add_uint(ptr noundef %68, i32 noundef %71, ptr noundef %0, i32 noundef %73, i32 noundef 4, i32 noundef %70)
  %75 = load i32, ptr @hf_Tango_DevError_desc, align 4
  tail call void @giop_add_CDR_string(ptr noundef %68, ptr noundef %0, ptr noundef %4, i1 noundef zeroext %6, i32 noundef 12, i32 noundef %75)
  %76 = load i32, ptr @hf_Tango_DevError_origin, align 4
  tail call void @giop_add_CDR_string(ptr noundef %68, ptr noundef %0, ptr noundef %4, i1 noundef zeroext %6, i32 noundef 12, i32 noundef %76)
  %77 = add nuw i32 %.01, 1
  %exitcond.not = icmp eq i32 %77, %58
  br i1 %exitcond.not, label %._crit_edge, label %.lr.ph, !llvm.loop !102

._crit_edge:                                      ; preds = %.lr.ph, %7
  ret void
}